; Function Attrs: nounwind uwtable
define void @stbir__horizontal_gather_2_channels_with_5_coeffs(ptr noundef writeonly captures(address) %0, i32 noundef %1, ptr noundef %2, ptr noundef readonly captures(none) %3, ptr noundef readonly captures(none) %4, i32 noundef %5) #0 {
  %7 = shl i32 %1, 1
  %8 = zext i32 %7 to i64
  %9 = getelementptr inbounds nuw float, ptr %0, i64 %8
  %10 = sext i32 %5 to i64
  br label %11

11:                                               ; preds = %11, %6
  %.033 = phi ptr [ %0, %6 ], [ %41, %11 ]
  %.032 = phi ptr [ %4, %6 ], [ %39, %11 ]
  %.0 = phi ptr [ %3, %6 ], [ %40, %11 ]
  %12 = load i32, ptr %.0, align 4, !tbaa !34
  %13 = shl nsw i32 %12, 1
  %14 = sext i32 %13 to i64
  %15 = getelementptr inbounds float, ptr %2, i64 %14
  tail call void asm sideeffect "", "r,~{dirflag},~{fpsr},~{flags}"(ptr %15) #24, !srcloc !517
  %16 = load <4 x float>, ptr %.032, align 1, !tbaa !4
  %17 = shufflevector <4 x float> %16, <4 x float> poison, <4 x i32> <i32 0, i32 0, i32 1, i32 1>
  %18 = load <4 x float>, ptr %15, align 1, !tbaa !4
  %19 = fmul <4 x float> %18, %17
  %20 = shufflevector <4 x float> %16, <4 x float> poison, <4 x i32> <i32 2, i32 2, i32 3, i32 3>
  %21 = getelementptr inbounds nuw i8, ptr %15, i64 16
  %22 = load <4 x float>, ptr %21, align 1, !tbaa !4
  %23 = fmul <4 x float> %20, %22
  %24 = getelementptr inbounds nuw i8, ptr %.032, i64 16
  %25 = load float, ptr %24, align 1, !tbaa !4
  %26 = insertelement <4 x float> <float poison, float 0.000000e+00, float poison, float poison>, float %25, i64 0
  %27 = shufflevector <4 x float> %26, <4 x float> poison, <4 x i32> <i32 0, i32 0, i32 1, i32 1>
  %28 = getelementptr inbounds nuw i8, ptr %15, i64 32
  %29 = load i64, ptr %28, align 1, !tbaa !4
  %30 = insertelement <2 x i64> <i64 poison, i64 0>, i64 %29, i64 0
  %31 = bitcast <2 x i64> %30 to <4 x float>
  %32 = fmul <4 x float> %27, %31
  %33 = fadd <4 x float> %19, %32
  %34 = fadd <4 x float> %23, %33
  %35 = shufflevector <4 x float> %34, <4 x float> poison, <4 x i32> <i32 2, i32 3, i32 poison, i32 poison>
  %36 = fadd <4 x float> %34, %35
  %37 = bitcast <4 x float> %36 to <2 x i64>
  %38 = extractelement <2 x i64> %37, i64 0
  store i64 %38, ptr %.033, align 1, !tbaa !4
  %39 = getelementptr inbounds float, ptr %.032, i64 %10
  %40 = getelementptr inbounds nuw i8, ptr %.0, i64 8
  %41 = getelementptr inbounds nuw i8, ptr %.033, i64 8
  %42 = icmp ult ptr %41, %9
  br i1 %42, label %11, label %43, !llvm.loop !518

43:                                               ; preds = %11
  ret void
}